Certificate:
    Data:
        Version: 3 (0x2)
        Serial Number: 4097 (0x1001)
        Signature Algorithm: sha256WithRSAEncryption
        Issuer: C=FR, O=DemoBank, OU=Security, CN=demo-signature-ca
        Validity
            Not Before: Apr  7 14:36:10 2026 GMT
            Not After : Jul 10 14:36:10 2028 GMT
        Subject: C=FR, O=DemoPSP, OU=Payments, CN=provider-http-signature
        Subject Public Key Info:
            Public Key Algorithm: rsaEncryption
                Public-Key: (3072 bit)
                Modulus:
                    00:c7:bd:2d:15:94:fc:20:86:34:cd:ae:4b:78:33:
                    32:ad:ff:4e:ec:8a:20:6f:4c:39:2c:9b:3b:67:2f:
                    49:df:e7:3e:da:39:df:8a:83:3a:2a:cd:91:4e:ff:
                    9b:fd:f2:66:76:79:28:36:c5:6c:d3:29:1b:8b:4b:
                    62:46:0b:6b:64:54:b8:85:cf:ba:e6:87:a4:d1:27:
                    d0:06:aa:a4:aa:38:01:ed:d2:ce:56:04:ef:8c:08:
                    64:8d:0f:15:b3:88:79:fb:80:71:64:f9:c9:08:39:
                    36:8b:c6:3c:b3:9b:70:73:a6:4f:51:2c:4c:63:21:
                    0f:d6:8f:99:ea:a5:21:07:56:30:09:97:53:80:1f:
                    66:7a:c4:fc:82:94:98:08:7e:8b:7d:1a:ef:e7:34:
                    ec:2b:8a:2f:be:01:81:eb:71:ce:0f:ed:36:44:67:
                    2c:27:6e:1e:cb:5e:28:3e:84:5a:77:c2:61:0a:db:
                    47:2b:06:0e:e1:3f:f4:63:02:65:92:55:11:e0:95:
                    66:7f:52:02:36:40:ee:9e:f3:35:23:0a:d4:a6:a8:
                    4f:bc:13:cd:cc:bb:95:d9:d3:41:0f:1e:6b:f8:76:
                    6e:67:c8:3c:04:ce:b3:79:fe:bc:33:f0:dc:dd:a5:
                    2f:56:5d:c4:06:a1:f9:6d:aa:b5:6c:2f:52:cf:c9:
                    63:75:19:70:0a:f8:35:95:88:ba:b6:ab:6d:bb:ac:
                    7c:1f:0a:45:f3:35:5f:f8:bb:6d:b1:95:93:aa:08:
                    54:75:b2:17:be:56:85:5d:57:54:7a:0a:79:ee:68:
                    3a:e2:05:ae:1c:36:9d:b9:cf:6e:2f:f1:ae:70:06:
                    f0:6c:51:0e:ff:e1:43:67:bc:16:b9:49:8d:e4:81:
                    77:01:89:41:33:ee:72:84:35:6a:6e:79:6f:59:43:
                    85:65:8e:9b:3b:80:ec:18:8b:f5:7c:c4:8d:60:a7:
                    3a:5f:81:ac:90:4b:4d:da:a8:30:ed:5d:aa:05:39:
                    75:8e:55:31:f1:bc:14:5e:b8:73
                Exponent: 65537 (0x10001)
        X509v3 extensions:
            X509v3 Basic Constraints: critical
                CA:FALSE
            X509v3 Subject Key Identifier: 
                E7:19:9B:28:0C:E4:11:B0:C1:EE:AD:05:10:71:15:3F:70:CF:FC:32
            X509v3 Authority Key Identifier: 
                51:75:4C:18:82:C8:47:8C:CB:F0:88:1A:F0:30:18:62:89:6F:DA:BA
            X509v3 Key Usage: critical
                Digital Signature
            X509v3 Extended Key Usage: 
                TLS Web Client Authentication, E-mail Protection
    Signature Algorithm: sha256WithRSAEncryption
    Signature Value:
        b9:e5:45:4e:47:36:75:aa:4a:b0:79:e4:ed:21:8a:80:99:0d:
        2f:77:e2:ee:f8:6e:a0:e6:c7:66:44:bd:9b:17:7a:19:64:a5:
        4c:49:ca:57:47:93:fb:3f:6b:7f:06:13:0f:fc:72:cb:25:ae:
        3c:2c:d9:fe:e3:6a:78:6c:a8:cb:03:78:38:b2:1b:6c:29:00:
        81:b8:91:55:88:9b:32:43:9c:f8:90:0b:df:41:84:32:6d:39:
        ee:16:5a:af:5a:8c:b6:83:0b:08:2b:ff:f3:61:44:cd:7a:ca:
        63:1e:ee:2b:0a:c6:84:de:5f:18:3f:02:6c:4c:8a:df:d2:e4:
        b5:96:15:0b:9b:25:2e:44:18:11:3c:0a:1e:e1:9a:f5:19:9a:
        47:73:81:98:f9:85:0c:2a:72:d3:ac:97:f6:8a:16:15:5d:3a:
        19:dc:dc:e7:3c:ca:47:22:2f:ff:ef:b0:12:08:c7:55:24:ae:
        5e:f4:b2:63:a1:3f:91:89:fa:66:04:4f:01:76:7c:65:d0:89:
        2b:49:81:06:0c:52:07:63:f2:43:d1:c1:20:8a:3d:c8:9d:ea:
        5d:39:60:17:77:6b:b0:26:67:1b:14:b6:57:a6:ad:37:10:d3:
        5d:33:b5:c1:a2:b3:40:d5:4d:b5:7d:73:f9:5d:9c:34:7b:b0:
        4f:b3:86:6b:d8:bf:9a:a1:1b:91:23:76:0b:8f:e7:a3:3f:0b:
        79:11:ca:17:fc:f1:9d:d5:11:af:03:50:f9:1c:b9:c3:7d:9b:
        d8:4d:92:0b:11:7c:a4:dd:f4:2c:36:10:f7:b3:e7:d4:21:ea:
        fe:c2:79:39:3e:a4:2a:02:2c:4e:23:d6:3f:d4:5c:a8:8a:33:
        9f:b6:74:f0:12:74:d1:9e:81:cc:48:d7:b7:03:87:54:b0:c4:
        96:fa:27:d0:ba:56:51:de:93:8d:3c:4d:59:b2:de:dd:38:2f:
        69:58:8e:63:60:bc:30:ed:cf:fb:d7:27:21:51:5d:ea:a4:8b:
        a3:5d:e0:5b:30:ff
-----BEGIN CERTIFICATE-----
MIIEnjCCAwagAwIBAgICEAEwDQYJKoZIhvcNAQELBQAwTzELMAkGA1UEBhMCRlIx
ETAPBgNVBAoMCERlbW9CYW5rMREwDwYDVQQLDAhTZWN1cml0eTEaMBgGA1UEAwwR
ZGVtby1zaWduYXR1cmUtY2EwHhcNMjYwNDA3MTQzNjEwWhcNMjgwNzEwMTQzNjEw
WjBUMQswCQYDVQQGEwJGUjEQMA4GA1UECgwHRGVtb1BTUDERMA8GA1UECwwIUGF5
bWVudHMxIDAeBgNVBAMMF3Byb3ZpZGVyLWh0dHAtc2lnbmF0dXJlMIIBojANBgkq
hkiG9w0BAQEFAAOCAY8AMIIBigKCAYEAx70tFZT8IIY0za5LeDMyrf9O7Iogb0w5
LJs7Zy9J3+c+2jnfioM6Ks2RTv+b/fJmdnkoNsVs0ykbi0tiRgtrZFS4hc+65oek
0SfQBqqkqjgB7dLOVgTvjAhkjQ8Vs4h5+4BxZPnJCDk2i8Y8s5twc6ZPUSxMYyEP
1o+Z6qUhB1YwCZdTgB9mesT8gpSYCH6LfRrv5zTsK4ovvgGB63HOD+02RGcsJ24e
y14oPoRad8JhCttHKwYO4T/0YwJlklUR4JVmf1ICNkDunvM1IwrUpqhPvBPNzLuV
2dNBDx5r+HZuZ8g8BM6zef68M/Dc3aUvVl3EBqH5baq1bC9Sz8ljdRlwCvg1lYi6
tqttu6x8HwpF8zVf+LttsZWTqghUdbIXvlaFXVdUegp57mg64gWuHDaduc9uL/Gu
cAbwbFEO/+FDZ7wWuUmN5IF3AYlBM+5yhDVqbnlvWUOFZY6bO4DsGIv1fMSNYKc6
X4GskEtN2qgw7V2qBTl1jlUx8bwUXrhzAgMBAAGjfzB9MAwGA1UdEwEB/wQCMAAw
HQYDVR0OBBYEFOcZmygM5BGwwe6tBRBxFT9wz/wyMB8GA1UdIwQYMBaAFFF1TBiC
yEeMy/CIGvAwGGKJb9q6MA4GA1UdDwEB/wQEAwIHgDAdBgNVHSUEFjAUBggrBgEF
BQcDAgYIKwYBBQUHAwQwDQYJKoZIhvcNAQELBQADggGBALnlRU5HNnWqSrB55O0h
ioCZDS934u74bqDmx2ZEvZsXehlkpUxJyldHk/s/a38GEw/8csslrjws2f7janhs
qMsDeDiyG2wpAIG4kVWImzJDnPiQC99BhDJtOe4WWq9ajLaDCwgr//NhRM16ymMe
7isKxoTeXxg/AmxMit/S5LWWFQubJS5EGBE8Ch7hmvUZmkdzgZj5hQwqctOsl/aK
FhVdOhnc3Oc8ykciL//vsBIIx1Ukrl70smOhP5GJ+mYETwF2fGXQiStJgQYMUgdj
8kPRwSCKPcid6l05YBd3a7AmZxsUtlemrTcQ010ztcGis0DVTbV9c/ldnDR7sE+z
hmvYv5qhG5EjdguP56M/C3kRyhf88Z3VEa8DUPkcucN9m9hNkgsRfKTd9Cw2EPez
59Qh6v7CeTk+pCoCLE4j1j/UXKiKM5+2dPASdNGegcxI17cDh1SwxJb6J9C6VlHe
k408TVmy3t04L2lYjmNgvDDtz/vXJyFRXeqki6Nd4Fsw/w==
-----END CERTIFICATE-----
